#include <math.h>
#include <stdio.h>
#include <stdlib.h>
#include <string.h>

int main()
{
	char n[5000];char m[100][20];
	char s1[20],s2[20];
	gets(n);gets(s1);gets(s2);
	int i,j=0,k=0,e;
	e=strlen(n);
		for(i=0;i<e;i++)
	{
		if(n[i]!=' ')
		{
			m[j][k]=n[i];
			k++;
		}
		 if(n[i]==' ')
		{
			m[j][k]='\0';
			j++;
			k=0;
		}
          }
                   m[j][k]='\0';	
        		for(i=0;i<=j;i++)
	{
		if(strcmp(m[i],s1)==0)
                  strcpy(m[i],s2);
		 
	}
         
	printf("%s",m[0]);
	for(i=1;i<=j;i++)
	{
			
	printf(" %s",m[i]);
          }
	return 0;
}


