; ModuleID = '19/1127.c'
source_filename = "19/1127.c"
target datalayout = "e-m:e-p270:32:32-p271:32:32-p272:64:64-i64:64-f80:128-n8:16:32:64-S128"
target triple = "x86_64-pc-linux-gnu"

@.str = private unnamed_addr constant [3 x i8] c"%s\00", align 1
@.str.1 = private unnamed_addr constant [4 x i8] c" %s\00", align 1

; Function Attrs: noinline nounwind uwtable
define dso_local i32 @main() #0 {
  %1 = alloca i32, align 4
  %2 = alloca [5000 x i8], align 16
  %3 = alloca [100 x [20 x i8]], align 16
  %4 = alloca [20 x i8], align 16
  %5 = alloca [20 x i8], align 16
  %6 = alloca i32, align 4
  %7 = alloca i32, align 4
  %8 = alloca i32, align 4
  %9 = alloca i32, align 4
  store i32 0, i32* %1, align 4
  %10 = getelementptr inbounds [5000 x i8], [5000 x i8]* %2, i64 0, i64 0
  %11 = call i32 (i8*, ...) bitcast (i32 (...)* @gets to i32 (i8*, ...)*)(i8* %10)
  %12 = getelementptr inbounds [20 x i8], [20 x i8]* %4, i64 0, i64 0
  %13 = call i32 (i8*, ...) bitcast (i32 (...)* @gets to i32 (i8*, ...)*)(i8* %12)
  %14 = getelementptr inbounds [20 x i8], [20 x i8]* %5, i64 0, i64 0
  %15 = call i32 (i8*, ...) bitcast (i32 (...)* @gets to i32 (i8*, ...)*)(i8* %14)
  store i32 0, i32* %7, align 4
  store i32 0, i32* %8, align 4
  %16 = getelementptr inbounds [5000 x i8], [5000 x i8]* %2, i64 0, i64 0
  %17 = call i64 @strlen(i8* %16) #4
  %18 = trunc i64 %17 to i32
  store i32 %18, i32* %9, align 4
  store i32 0, i32* %6, align 4
  br label %19

19:                                               ; preds = %60, %0
  %20 = load i32, i32* %6, align 4
  %21 = load i32, i32* %9, align 4
  %22 = icmp slt i32 %20, %21
  br i1 %22, label %23, label %63

23:                                               ; preds = %19
  %24 = load i32, i32* %6, align 4
  %25 = sext i32 %24 to i64
  %26 = getelementptr inbounds [5000 x i8], [5000 x i8]* %2, i64 0, i64 %25
  %27 = load i8, i8* %26, align 1
  %28 = sext i8 %27 to i32
  %29 = icmp ne i32 %28, 32
  br i1 %29, label %30, label %43

30:                                               ; preds = %23
  %31 = load i32, i32* %6, align 4
  %32 = sext i32 %31 to i64
  %33 = getelementptr inbounds [5000 x i8], [5000 x i8]* %2, i64 0, i64 %32
  %34 = load i8, i8* %33, align 1
  %35 = load i32, i32* %7, align 4
  %36 = sext i32 %35 to i64
  %37 = getelementptr inbounds [100 x [20 x i8]], [100 x [20 x i8]]* %3, i64 0, i64 %36
  %38 = load i32, i32* %8, align 4
  %39 = sext i32 %38 to i64
  %40 = getelementptr inbounds [20 x i8], [20 x i8]* %37, i64 0, i64 %39
  store i8 %34, i8* %40, align 1
  %41 = load i32, i32* %8, align 4
  %42 = add nsw i32 %41, 1
  store i32 %42, i32* %8, align 4
  br label %43

43:                                               ; preds = %30, %23
  %44 = load i32, i32* %6, align 4
  %45 = sext i32 %44 to i64
  %46 = getelementptr inbounds [5000 x i8], [5000 x i8]* %2, i64 0, i64 %45
  %47 = load i8, i8* %46, align 1
  %48 = sext i8 %47 to i32
  %49 = icmp eq i32 %48, 32
  br i1 %49, label %50, label %59

50:                                               ; preds = %43
  %51 = load i32, i32* %7, align 4
  %52 = sext i32 %51 to i64
  %53 = getelementptr inbounds [100 x [20 x i8]], [100 x [20 x i8]]* %3, i64 0, i64 %52
  %54 = load i32, i32* %8, align 4
  %55 = sext i32 %54 to i64
  %56 = getelementptr inbounds [20 x i8], [20 x i8]* %53, i64 0, i64 %55
  store i8 0, i8* %56, align 1
  %57 = load i32, i32* %7, align 4
  %58 = add nsw i32 %57, 1
  store i32 %58, i32* %7, align 4
  store i32 0, i32* %8, align 4
  br label %59

59:                                               ; preds = %50, %43
  br label %60

60:                                               ; preds = %59
  %61 = load i32, i32* %6, align 4
  %62 = add nsw i32 %61, 1
  store i32 %62, i32* %6, align 4
  br label %19

63:                                               ; preds = %19
  %64 = load i32, i32* %7, align 4
  %65 = sext i32 %64 to i64
  %66 = getelementptr inbounds [100 x [20 x i8]], [100 x [20 x i8]]* %3, i64 0, i64 %65
  %67 = load i32, i32* %8, align 4
  %68 = sext i32 %67 to i64
  %69 = getelementptr inbounds [20 x i8], [20 x i8]* %66, i64 0, i64 %68
  store i8 0, i8* %69, align 1
  store i32 0, i32* %6, align 4
  br label %70

70:                                               ; preds = %90, %63
  %71 = load i32, i32* %6, align 4
  %72 = load i32, i32* %7, align 4
  %73 = icmp sle i32 %71, %72
  br i1 %73, label %74, label %93

74:                                               ; preds = %70
  %75 = load i32, i32* %6, align 4
  %76 = sext i32 %75 to i64
  %77 = getelementptr inbounds [100 x [20 x i8]], [100 x [20 x i8]]* %3, i64 0, i64 %76
  %78 = getelementptr inbounds [20 x i8], [20 x i8]* %77, i64 0, i64 0
  %79 = getelementptr inbounds [20 x i8], [20 x i8]* %4, i64 0, i64 0
  %80 = call i32 @strcmp(i8* %78, i8* %79) #4
  %81 = icmp eq i32 %80, 0
  br i1 %81, label %82, label %89

82:                                               ; preds = %74
  %83 = load i32, i32* %6, align 4
  %84 = sext i32 %83 to i64
  %85 = getelementptr inbounds [100 x [20 x i8]], [100 x [20 x i8]]* %3, i64 0, i64 %84
  %86 = getelementptr inbounds [20 x i8], [20 x i8]* %85, i64 0, i64 0
  %87 = getelementptr inbounds [20 x i8], [20 x i8]* %5, i64 0, i64 0
  %88 = call i8* @strcpy(i8* %86, i8* %87) #5
  br label %89

89:                                               ; preds = %82, %74
  br label %90

90:                                               ; preds = %89
  %91 = load i32, i32* %6, align 4
  %92 = add nsw i32 %91, 1
  store i32 %92, i32* %6, align 4
  br label %70

93:                                               ; preds = %70
  %94 = getelementptr inbounds [100 x [20 x i8]], [100 x [20 x i8]]* %3, i64 0, i64 0
  %95 = getelementptr inbounds [20 x i8], [20 x i8]* %94, i64 0, i64 0
  %96 = call i32 (i8*, ...) @printf(i8* getelementptr inbounds ([3 x i8], [3 x i8]* @.str, i64 0, i64 0), i8* %95)
  store i32 1, i32* %6, align 4
  br label %97

97:                                               ; preds = %107, %93
  %98 = load i32, i32* %6, align 4
  %99 = load i32, i32* %7, align 4
  %100 = icmp sle i32 %98, %99
  br i1 %100, label %101, label %110

101:                                              ; preds = %97
  %102 = load i32, i32* %6, align 4
  %103 = sext i32 %102 to i64
  %104 = getelementptr inbounds [100 x [20 x i8]], [100 x [20 x i8]]* %3, i64 0, i64 %103
  %105 = getelementptr inbounds [20 x i8], [20 x i8]* %104, i64 0, i64 0
  %106 = call i32 (i8*, ...) @printf(i8* getelementptr inbounds ([4 x i8], [4 x i8]* @.str.1, i64 0, i64 0), i8* %105)
  br label %107

107:                                              ; preds = %101
  %108 = load i32, i32* %6, align 4
  %109 = add nsw i32 %108, 1
  store i32 %109, i32* %6, align 4
  br label %97

110:                                              ; preds = %97
  ret i32 0
}

declare dso_local i32 @gets(...) #1

; Function Attrs: nounwind readonly
declare dso_local i64 @strlen(i8*) #2

; Function Attrs: nounwind readonly
declare dso_local i32 @strcmp(i8*, i8*) #2

; Function Attrs: nounwind
declare dso_local i8* @strcpy(i8*, i8*) #3

declare dso_local i32 @printf(i8*, ...) #1


!llvm.module.flags = !{!0}
!llvm.ident = !{!1}

!0 = !{i32 1, !"wchar_size", i32 4}
!1 = !{!"clang version 10.0.0-4ubuntu1 "}
